target datalayout = "e-m:e-p270:32:32-p271:32:32-p272:64:64-i64:64-i128:128-f80:128-n8:16:32:64-S128"
target triple = "x86_64-pc-linux-gnu"

%"class.icu_77::UObject" = type { ptr }
%"class.icu_77::UnicodeString" = type { %"class.icu_77::Replaceable", %"union.icu_77::UnicodeString::StackBufferOrFields" }
%"class.icu_77::Replaceable" = type { %"class.icu_77::UObject" }
%"union.icu_77::UnicodeString::StackBufferOrFields" = type { %struct.anon.0, [32 x i8] }
%struct.anon.0 = type { i16, i32, i32, ptr }
%"class.icu_77::Hashtable" = type { ptr, %struct.UHashtable }
%struct.UHashtable = type { ptr, ptr, ptr, ptr, ptr, ptr, i32, i32, i32, i32, float, float, i8, i8 }
%"class.icu_77::ICUService" = type { %"class.icu_77::ICUNotifier", %"class.icu_77::UnicodeString", i32, ptr, ptr, ptr, ptr }
%"class.icu_77::ICUNotifier" = type { ptr, ptr }
%"class.icu_77::UVector" = type { %"class.icu_77::UObject", i32, i32, ptr, ptr, ptr }

; Function Attrs: inlinehint mustprogress nounwind uwtable
define internal noundef signext i8 @_ZL9U_SUCCESS10UErrorCode(i32 noundef %0) #1 {
  %2 = alloca i32, align 4
  store i32 %0, ptr %2, align 4, !tbaa !33
  %3 = load i32, ptr %2, align 4, !tbaa !33
  %4 = icmp sle i32 %3, 0
  %5 = zext i1 %4 to i8
  ret i8 %5
}

; Function Attrs: inlinehint mustprogress uwtable
define linkonce_odr void @_ZN6icu_779Hashtable4initEPFi8UElementEPFaS1_S1_ES5_R10UErrorCode(ptr noundef nonnull align 8 dereferenceable(88) %0, ptr noundef %1, ptr noundef %2, ptr noundef %3, ptr noundef nonnull align 4 dereferenceable(4) %4) #5 comdat align 2 {
  %6 = alloca ptr, align 8
  %7 = alloca ptr, align 8
  %8 = alloca ptr, align 8
  %9 = alloca ptr, align 8
  %10 = alloca ptr, align 8
  store ptr %0, ptr %6, align 8, !tbaa !35
  store ptr %1, ptr %7, align 8, !tbaa !32
  store ptr %2, ptr %8, align 8, !tbaa !32
  store ptr %3, ptr %9, align 8, !tbaa !32
  store ptr %4, ptr %10, align 8, !tbaa !32
  %11 = load ptr, ptr %6, align 8
  %12 = load ptr, ptr %10, align 8, !tbaa !32
  %13 = load i32, ptr %12, align 4, !tbaa !33
  %14 = call noundef signext i8 @_ZL9U_FAILURE10UErrorCode(i32 noundef %13)
  %15 = icmp ne i8 %14, 0
  br i1 %15, label %16, label %17

16:                                               ; preds = %5
  br label %34

17:                                               ; preds = %5
  %18 = getelementptr inbounds nuw %"class.icu_77::Hashtable", ptr %11, i32 0, i32 1
  %19 = load ptr, ptr %7, align 8, !tbaa !32
  %20 = load ptr, ptr %8, align 8, !tbaa !32
  %21 = load ptr, ptr %9, align 8, !tbaa !32
  %22 = load ptr, ptr %10, align 8, !tbaa !32
  %23 = call ptr @uhash_init_77(ptr noundef %18, ptr noundef %19, ptr noundef %20, ptr noundef %21, ptr noundef %22)
  %24 = load ptr, ptr %10, align 8, !tbaa !32
  %25 = load i32, ptr %24, align 4, !tbaa !33
  %26 = call noundef signext i8 @_ZL9U_SUCCESS10UErrorCode(i32 noundef %25)
  %27 = icmp ne i8 %26, 0
  br i1 %27, label %28, label %34

28:                                               ; preds = %17
  %29 = getelementptr inbounds nuw %"class.icu_77::Hashtable", ptr %11, i32 0, i32 1
  %30 = getelementptr inbounds nuw %"class.icu_77::Hashtable", ptr %11, i32 0, i32 0
  store ptr %29, ptr %30, align 8, !tbaa !37
  %31 = getelementptr inbounds nuw %"class.icu_77::Hashtable", ptr %11, i32 0, i32 0
  %32 = load ptr, ptr %31, align 8, !tbaa !37
  %33 = call ptr @uhash_setKeyDeleter_77(ptr noundef %32, ptr noundef @uprv_deleteUObject_77)
  br label %34

34:                                               ; preds = %16, %28, %17
  ret void
}

; Function Attrs: inlinehint mustprogress nounwind uwtable
define linkonce_odr void @_ZN6icu_779HashtableD2Ev(ptr noundef nonnull align 8 dereferenceable(88) %0) unnamed_addr #1 comdat align 2 personality ptr @__gxx_personality_v0 {
  %2 = alloca ptr, align 8
  store ptr %0, ptr %2, align 8, !tbaa !35
  %3 = load ptr, ptr %2, align 8
  %4 = getelementptr inbounds nuw %"class.icu_77::Hashtable", ptr %3, i32 0, i32 0
  %5 = load ptr, ptr %4, align 8, !tbaa !37
  %6 = icmp ne ptr %5, null
  br i1 %6, label %7, label %11

7:                                                ; preds = %1
  %8 = getelementptr inbounds nuw %"class.icu_77::Hashtable", ptr %3, i32 0, i32 0
  %9 = load ptr, ptr %8, align 8, !tbaa !37
  invoke void @uhash_close_77(ptr noundef %9)
          to label %10 unwind label %12

10:                                               ; preds = %7
  br label %11

11:                                               ; preds = %10, %1
  ret void

12:                                               ; preds = %7
  %13 = landingpad { ptr, i32 }
          catch ptr null
  %14 = extractvalue { ptr, i32 } %13, 0
  call void @__clang_call_terminate(ptr %14) #11
  unreachable
}

; Function Attrs: inlinehint mustprogress nounwind uwtable
define linkonce_odr noundef i32 @_ZNK6icu_777UVector4sizeEv(ptr noundef nonnull align 8 dereferenceable(40) %0) #1 comdat align 2 {
  %2 = alloca ptr, align 8
  store ptr %0, ptr %2, align 8, !tbaa !80
  %3 = load ptr, ptr %2, align 8
  %4 = getelementptr inbounds nuw %"class.icu_77::UVector", ptr %3, i32 0, i32 1
  %5 = load i32, ptr %4, align 8, !tbaa !81
  ret i32 %5
}

; Function Attrs: inlinehint mustprogress uwtable
define linkonce_odr void @_ZN6icu_779HashtableC2ER10UErrorCode(ptr noundef nonnull align 8 dereferenceable(88) %0, ptr noundef nonnull align 4 dereferenceable(4) %1) unnamed_addr #5 comdat align 2 {
  %3 = alloca ptr, align 8
  %4 = alloca ptr, align 8
  store ptr %0, ptr %3, align 8, !tbaa !35
  store ptr %1, ptr %4, align 8, !tbaa !32
  %5 = load ptr, ptr %3, align 8
  %6 = getelementptr inbounds nuw %"class.icu_77::Hashtable", ptr %5, i32 0, i32 0
  store ptr null, ptr %6, align 8, !tbaa !37
  %7 = load ptr, ptr %4, align 8, !tbaa !32
  call void @_ZN6icu_779Hashtable4initEPFi8UElementEPFaS1_S1_ES5_R10UErrorCode(ptr noundef nonnull align 8 dereferenceable(88) %5, ptr noundef @uhash_hashUnicodeString_77, ptr noundef @uhash_compareUnicodeString_77, ptr noundef null, ptr noundef nonnull align 4 dereferenceable(4) %7)
  ret void
}

; Function Attrs: inlinehint mustprogress nounwind uwtable
define internal noundef signext i8 @_ZL9U_FAILURE10UErrorCode(i32 noundef %0) #1 {
  %2 = alloca i32, align 4
  store i32 %0, ptr %2, align 4, !tbaa !33
  %3 = load i32, ptr %2, align 4, !tbaa !33
  %4 = icmp sgt i32 %3, 0
  %5 = zext i1 %4 to i8
  ret i8 %5
}

; Function Attrs: mustprogress uwtable
define noundef ptr @_ZNK6icu_7710ICUService15getVisibleIDMapER10UErrorCode(ptr noundef nonnull align 8 dereferenceable(120) %0, ptr noundef nonnull align 4 dereferenceable(4) %1) #0 align 2 personality ptr @__gxx_personality_v0 {
  %3 = alloca ptr, align 8
  %4 = alloca ptr, align 8
  %5 = alloca ptr, align 8
  %6 = alloca ptr, align 8
  %7 = alloca ptr, align 8
  %8 = alloca i1, align 1
  %9 = alloca ptr, align 8
  %10 = alloca i32, align 4
  %11 = alloca i32, align 4
  %12 = alloca ptr, align 8
  store ptr %0, ptr %4, align 8, !tbaa !30
  store ptr %1, ptr %5, align 8, !tbaa !32
  %13 = load ptr, ptr %4, align 8
  %14 = load ptr, ptr %5, align 8, !tbaa !32
  %15 = load i32, ptr %14, align 4, !tbaa !33
  %16 = call noundef signext i8 @_ZL9U_FAILURE10UErrorCode(i32 noundef %15)
  %17 = icmp ne i8 %16, 0
  br i1 %17, label %18, label %19

18:                                               ; preds = %2
  store ptr null, ptr %3, align 8
  br label %90

19:                                               ; preds = %2
  call void @llvm.lifetime.start.p0(i64 8, ptr %6) #10
  store ptr %13, ptr %6, align 8, !tbaa !30
  %20 = getelementptr inbounds nuw %"class.icu_77::ICUService", ptr %13, i32 0, i32 5
  %21 = load ptr, ptr %20, align 8, !tbaa !56
  %22 = icmp eq ptr %21, null
  br i1 %22, label %23, label %87

23:                                               ; preds = %19
  %24 = call noundef ptr @_ZN6icu_777UMemorynwEm(i64 noundef 88) #10
  %25 = icmp eq ptr %24, null
  store i1 false, ptr %8, align 1
  br i1 %25, label %29, label %26

26:                                               ; preds = %23
  store ptr %24, ptr %7, align 8
  store i1 true, ptr %8, align 1
  %27 = load ptr, ptr %5, align 8, !tbaa !32
  invoke void @_ZN6icu_779HashtableC2ER10UErrorCode(ptr noundef nonnull align 8 dereferenceable(88) %24, ptr noundef nonnull align 4 dereferenceable(4) %27)
          to label %28 unwind label %38

28:                                               ; preds = %26
  br label %29

29:                                               ; preds = %28, %23
  %30 = phi ptr [ %24, %28 ], [ null, %23 ]
  %31 = load ptr, ptr %6, align 8, !tbaa !30
  %32 = getelementptr inbounds nuw %"class.icu_77::ICUService", ptr %31, i32 0, i32 5
  store ptr %30, ptr %32, align 8, !tbaa !56
  %33 = getelementptr inbounds nuw %"class.icu_77::ICUService", ptr %13, i32 0, i32 5
  %34 = load ptr, ptr %33, align 8, !tbaa !56
  %35 = icmp eq ptr %34, null
  br i1 %35, label %36, label %46

36:                                               ; preds = %29
  %37 = load ptr, ptr %5, align 8, !tbaa !32
  store i32 7, ptr %37, align 4, !tbaa !33
  br label %86

38:                                               ; preds = %26
  %39 = landingpad { ptr, i32 }
          cleanup
  %40 = extractvalue { ptr, i32 } %39, 0
  store ptr %40, ptr %9, align 8
  %41 = extractvalue { ptr, i32 } %39, 1
  store i32 %41, ptr %10, align 4
  %42 = load i1, ptr %8, align 1
  br i1 %42, label %43, label %45

43:                                               ; preds = %38
  %44 = load ptr, ptr %7, align 8
  call void @_ZN6icu_777UMemorydlEPv(ptr noundef %44) #10
  br label %45

45:                                               ; preds = %43, %38
  call void @llvm.lifetime.end.p0(i64 8, ptr %6) #10
  br label %92

46:                                               ; preds = %29
  %47 = getelementptr inbounds nuw %"class.icu_77::ICUService", ptr %13, i32 0, i32 3
  %48 = load ptr, ptr %47, align 8, !tbaa !54
  %49 = icmp ne ptr %48, null
  br i1 %49, label %50, label %85

50:                                               ; preds = %46
  call void @llvm.lifetime.start.p0(i64 4, ptr %11) #10
  %51 = getelementptr inbounds nuw %"class.icu_77::ICUService", ptr %13, i32 0, i32 3
  %52 = load ptr, ptr %51, align 8, !tbaa !54
  %53 = call noundef i32 @_ZNK6icu_777UVector4sizeEv(ptr noundef nonnull align 8 dereferenceable(40) %52)
  store i32 %53, ptr %11, align 4, !tbaa !16
  br label %54

54:                                               ; preds = %59, %50
  %55 = load i32, ptr %11, align 4, !tbaa !16
  %56 = add nsw i32 %55, -1
  store i32 %56, ptr %11, align 4, !tbaa !16
  %57 = icmp sge i32 %56, 0
  br i1 %57, label %59, label %58

58:                                               ; preds = %54
  call void @llvm.lifetime.end.p0(i64 4, ptr %11) #10
  br label %71

59:                                               ; preds = %54
  call void @llvm.lifetime.start.p0(i64 8, ptr %12) #10
  %60 = getelementptr inbounds nuw %"class.icu_77::ICUService", ptr %13, i32 0, i32 3
  %61 = load ptr, ptr %60, align 8, !tbaa !54
  %62 = load i32, ptr %11, align 4, !tbaa !16
  %63 = call noundef ptr @_ZNK6icu_777UVector9elementAtEi(ptr noundef nonnull align 8 dereferenceable(40) %61, i32 noundef %62)
  store ptr %63, ptr %12, align 8, !tbaa !18
  %64 = load ptr, ptr %12, align 8, !tbaa !18
  %65 = getelementptr inbounds nuw %"class.icu_77::ICUService", ptr %13, i32 0, i32 5
  %66 = load ptr, ptr %65, align 8, !tbaa !56
  %67 = load ptr, ptr %5, align 8, !tbaa !32
  %68 = load ptr, ptr %64, align 8, !tbaa !10
  %69 = getelementptr inbounds ptr, ptr %68, i64 4
  %70 = load ptr, ptr %69, align 8
  call void %70(ptr noundef nonnull align 8 dereferenceable(8) %64, ptr noundef nonnull align 8 dereferenceable(88) %66, ptr noundef nonnull align 4 dereferenceable(4) %67)
  call void @llvm.lifetime.end.p0(i64 8, ptr %12) #10
  br label %54, !llvm.loop !103

71:                                               ; preds = %58
  %72 = load ptr, ptr %5, align 8, !tbaa !32
  %73 = load i32, ptr %72, align 4, !tbaa !33
  %74 = call noundef signext i8 @_ZL9U_FAILURE10UErrorCode(i32 noundef %73)
  %75 = icmp ne i8 %74, 0
  br i1 %75, label %76, label %84

76:                                               ; preds = %71
  %77 = getelementptr inbounds nuw %"class.icu_77::ICUService", ptr %13, i32 0, i32 5
  %78 = load ptr, ptr %77, align 8, !tbaa !56
  %79 = icmp eq ptr %78, null
  br i1 %79, label %81, label %80

80:                                               ; preds = %76
  call void @_ZN6icu_779HashtableD2Ev(ptr noundef nonnull align 8 dereferenceable(88) %78) #10
  call void @_ZN6icu_777UMemorydlEPv(ptr noundef %78) #10
  br label %81

81:                                               ; preds = %80, %76
  %82 = load ptr, ptr %6, align 8, !tbaa !30
  %83 = getelementptr inbounds nuw %"class.icu_77::ICUService", ptr %82, i32 0, i32 5
  store ptr null, ptr %83, align 8, !tbaa !56
  br label %84

84:                                               ; preds = %81, %71
  br label %85

85:                                               ; preds = %84, %46
  br label %86

86:                                               ; preds = %85, %36
  br label %87

87:                                               ; preds = %86, %19
  %88 = getelementptr inbounds nuw %"class.icu_77::ICUService", ptr %13, i32 0, i32 5
  %89 = load ptr, ptr %88, align 8, !tbaa !56
  store ptr %89, ptr %3, align 8
  call void @llvm.lifetime.end.p0(i64 8, ptr %6) #10
  br label %90

90:                                               ; preds = %87, %18
  %91 = load ptr, ptr %3, align 8
  ret ptr %91

92:                                               ; preds = %45
  %93 = load ptr, ptr %9, align 8
  %94 = load i32, ptr %10, align 4
  %95 = insertvalue { ptr, i32 } poison, ptr %93, 0
  %96 = insertvalue { ptr, i32 } %95, i32 %94, 1
  resume { ptr, i32 } %96
}