; Function Attrs: mustprogress uwtable
define noundef ptr @_ZNK6icu_7710ICUService15getVisibleIDMapER10UErrorCode(ptr noundef nonnull align 8 captures(none) dereferenceable(120) %0, ptr noundef nonnull align 4 dereferenceable(4) %1) local_unnamed_addr #0 align 2 personality ptr @__gxx_personality_v0 {
  %3 = load i32, ptr %1, align 4, !tbaa !19
  %4 = icmp slt i32 %3, 1
  br i1 %4, label %5, label %51

5:                                                ; preds = %2
  %6 = getelementptr inbounds nuw i8, ptr %0, i64 104
  %7 = load ptr, ptr %6, align 8, !tbaa !53
  %8 = icmp eq ptr %7, null
  br i1 %8, label %9, label %51

9:                                                ; preds = %5
  %10 = tail call noundef ptr @_ZN6icu_777UMemorynwEm(i64 noundef 88) #17
  %11 = icmp eq ptr %10, null
  br i1 %11, label %22, label %12

12:                                               ; preds = %9
  store ptr null, ptr %10, align 8, !tbaa !21
  %13 = load i32, ptr %1, align 4, !tbaa !19
  %14 = icmp slt i32 %13, 1
  br i1 %14, label %15, label %25

15:                                               ; preds = %12
  %16 = getelementptr inbounds nuw i8, ptr %10, i64 8
  %17 = invoke ptr @uhash_init_77(ptr noundef nonnull %16, ptr noundef nonnull @uhash_hashUnicodeString_77, ptr noundef nonnull @uhash_compareUnicodeString_77, ptr noundef null, ptr noundef nonnull align 4 dereferenceable(4) %1)
          to label %.noexc unwind label %23

.noexc:                                           ; preds = %15
  %18 = load i32, ptr %1, align 4, !tbaa !19
  %19 = icmp sgt i32 %18, 0
  br i1 %19, label %25, label %20

20:                                               ; preds = %.noexc
  store ptr %16, ptr %10, align 8, !tbaa !21
  %21 = invoke ptr @uhash_setKeyDeleter_77(ptr noundef nonnull %16, ptr noundef nonnull @uprv_deleteUObject_77)
          to label %25 unwind label %23

22:                                               ; preds = %9
  store ptr null, ptr %6, align 8, !tbaa !53
  store i32 7, ptr %1, align 4, !tbaa !19
  br label %51

23:                                               ; preds = %20, %15
  %24 = landingpad { ptr, i32 }
          cleanup
  tail call void @_ZN6icu_777UMemorydlEPv(ptr noundef nonnull %10) #17
  resume { ptr, i32 } %24

25:                                               ; preds = %20, %12, %.noexc
  store ptr %10, ptr %6, align 8, !tbaa !53
  %26 = getelementptr inbounds nuw i8, ptr %0, i64 88
  %27 = load ptr, ptr %26, align 8, !tbaa !34
  %.not20 = icmp eq ptr %27, null
  br i1 %.not20, label %51, label %28

28:                                               ; preds = %25
  %29 = getelementptr inbounds nuw i8, ptr %27, i64 8
  %30 = load i32, ptr %29, align 8, !tbaa !40
  %31 = icmp sgt i32 %30, 0
  br i1 %31, label %.lr.ph, label %._crit_edge

._crit_edge.loopexit:                             ; preds = %.lr.ph
  %.pre.pre = load ptr, ptr %6, align 8, !tbaa !53
  br label %._crit_edge

._crit_edge:                                      ; preds = %._crit_edge.loopexit, %28
  %.pre = phi ptr [ %.pre.pre, %._crit_edge.loopexit ], [ %10, %28 ]
  %32 = load i32, ptr %1, align 4, !tbaa !19
  %33 = icmp slt i32 %32, 1
  br i1 %33, label %51, label %42

.lr.ph:                                           ; preds = %28, %.lr.ph
  %.01523 = phi i32 [ %34, %.lr.ph ], [ %30, %28 ]
  %34 = add nsw i32 %.01523, -1
  %35 = load ptr, ptr %26, align 8, !tbaa !34
  %36 = tail call noundef ptr @_ZNK6icu_777UVector9elementAtEi(ptr noundef nonnull align 8 dereferenceable(40) %35, i32 noundef %34)
  %37 = load ptr, ptr %6, align 8, !tbaa !53
  %38 = load ptr, ptr %36, align 8, !tbaa !3
  %39 = getelementptr inbounds nuw i8, ptr %38, i64 32
  %40 = load ptr, ptr %39, align 8
  tail call void %40(ptr noundef nonnull align 8 dereferenceable(8) %36, ptr noundef nonnull align 8 dereferenceable(88) %37, ptr noundef nonnull align 4 dereferenceable(4) %1)
  %41 = icmp samesign ugt i32 %.01523, 1
  br i1 %41, label %.lr.ph, label %._crit_edge.loopexit, !llvm.loop !54

42:                                               ; preds = %._crit_edge
  %43 = icmp eq ptr %.pre, null
  br i1 %43, label %50, label %44

44:                                               ; preds = %42
  %45 = load ptr, ptr %.pre, align 8, !tbaa !21
  %.not.i = icmp eq ptr %45, null
  br i1 %.not.i, label %_ZN6icu_779HashtableD2Ev.exit, label %46

46:                                               ; preds = %44
  invoke void @uhash_close_77(ptr noundef nonnull %45)
          to label %_ZN6icu_779HashtableD2Ev.exit unwind label %47

47:                                               ; preds = %46
  %48 = landingpad { ptr, i32 }
          catch ptr null
  %49 = extractvalue { ptr, i32 } %48, 0
  tail call void @__clang_call_terminate(ptr %49) #18
  unreachable

_ZN6icu_779HashtableD2Ev.exit:                    ; preds = %44, %46
  tail call void @_ZN6icu_777UMemorydlEPv(ptr noundef nonnull %.pre) #17
  br label %50

50:                                               ; preds = %_ZN6icu_779HashtableD2Ev.exit, %42
  store ptr null, ptr %6, align 8, !tbaa !53
  br label %51

51:                                               ; preds = %5, %25, %50, %._crit_edge, %22, %2
  %.0 = phi ptr [ null, %2 ], [ null, %22 ], [ %.pre, %._crit_edge ], [ null, %50 ], [ %10, %25 ], [ %7, %5 ]
  ret ptr %.0
}